; ModuleID = '7/605.c'
source_filename = "7/605.c"
target datalayout = "e-m:e-p270:32:32-p271:32:32-p272:64:64-i64:64-f80:128-n8:16:32:64-S128"
target triple = "x86_64-pc-linux-gnu"

@.str = private unnamed_addr constant [3 x i8] c"%s\00", align 1
@.str.1 = private unnamed_addr constant [3 x i8] c"%c\00", align 1

; Function Attrs: noinline nounwind uwtable
define dso_local i32 @main() #0 {
  %1 = alloca i32, align 4
  %2 = alloca [256 x i8], align 16
  %3 = alloca [256 x i8], align 16
  %4 = alloca [256 x i8], align 16
  %5 = alloca [256 x [256 x i8]], align 16
  %6 = alloca i32, align 4
  %7 = alloca i32, align 4
  %8 = alloca i32, align 4
  %9 = alloca i32, align 4
  %10 = alloca i32, align 4
  %11 = alloca i32, align 4
  %12 = alloca i32, align 4
  store i32 0, i32* %1, align 4
  %13 = getelementptr inbounds [256 x i8], [256 x i8]* %2, i64 0, i64 0
  %14 = call i32 (i8*, ...) bitcast (i32 (...)* @gets to i32 (i8*, ...)*)(i8* %13)
  %15 = getelementptr inbounds [256 x i8], [256 x i8]* %3, i64 0, i64 0
  %16 = call i32 (i8*, ...) bitcast (i32 (...)* @gets to i32 (i8*, ...)*)(i8* %15)
  %17 = getelementptr inbounds [256 x i8], [256 x i8]* %4, i64 0, i64 0
  %18 = call i32 (i8*, ...) bitcast (i32 (...)* @gets to i32 (i8*, ...)*)(i8* %17)
  %19 = getelementptr inbounds [256 x i8], [256 x i8]* %3, i64 0, i64 0
  %20 = call i64 @strlen(i8* %19) #4
  %21 = trunc i64 %20 to i32
  store i32 %21, i32* %6, align 4
  %22 = getelementptr inbounds [256 x i8], [256 x i8]* %2, i64 0, i64 0
  %23 = call i64 @strlen(i8* %22) #4
  %24 = trunc i64 %23 to i32
  store i32 %24, i32* %7, align 4
  store i32 0, i32* %11, align 4
  store i32 0, i32* %12, align 4
  store i32 0, i32* %8, align 4
  br label %25

25:                                               ; preds = %63, %0
  %26 = load i32, i32* %8, align 4
  %27 = load i32, i32* %7, align 4
  %28 = load i32, i32* %6, align 4
  %29 = sub nsw i32 %27, %28
  %30 = icmp sle i32 %26, %29
  br i1 %30, label %31, label %66

31:                                               ; preds = %25
  store i32 0, i32* %9, align 4
  br label %32

32:                                               ; preds = %51, %31
  %33 = load i32, i32* %9, align 4
  %34 = load i32, i32* %6, align 4
  %35 = icmp slt i32 %33, %34
  br i1 %35, label %36, label %54

36:                                               ; preds = %32
  %37 = load i32, i32* %8, align 4
  %38 = load i32, i32* %9, align 4
  %39 = add nsw i32 %37, %38
  %40 = sext i32 %39 to i64
  %41 = getelementptr inbounds [256 x i8], [256 x i8]* %2, i64 0, i64 %40
  %42 = load i8, i8* %41, align 1
  %43 = load i32, i32* %11, align 4
  %44 = sext i32 %43 to i64
  %45 = getelementptr inbounds [256 x [256 x i8]], [256 x [256 x i8]]* %5, i64 0, i64 %44
  %46 = load i32, i32* %12, align 4
  %47 = sext i32 %46 to i64
  %48 = getelementptr inbounds [256 x i8], [256 x i8]* %45, i64 0, i64 %47
  store i8 %42, i8* %48, align 1
  %49 = load i32, i32* %12, align 4
  %50 = add nsw i32 %49, 1
  store i32 %50, i32* %12, align 4
  br label %51

51:                                               ; preds = %36
  %52 = load i32, i32* %9, align 4
  %53 = add nsw i32 %52, 1
  store i32 %53, i32* %9, align 4
  br label %32

54:                                               ; preds = %32
  %55 = load i32, i32* %11, align 4
  %56 = sext i32 %55 to i64
  %57 = getelementptr inbounds [256 x [256 x i8]], [256 x [256 x i8]]* %5, i64 0, i64 %56
  %58 = load i32, i32* %12, align 4
  %59 = sext i32 %58 to i64
  %60 = getelementptr inbounds [256 x i8], [256 x i8]* %57, i64 0, i64 %59
  store i8 0, i8* %60, align 1
  %61 = load i32, i32* %11, align 4
  %62 = add nsw i32 %61, 1
  store i32 %62, i32* %11, align 4
  store i32 0, i32* %12, align 4
  br label %63

63:                                               ; preds = %54
  %64 = load i32, i32* %8, align 4
  %65 = add nsw i32 %64, 1
  store i32 %65, i32* %8, align 4
  br label %25

66:                                               ; preds = %25
  store i32 0, i32* %8, align 4
  br label %67

67:                                               ; preds = %103, %66
  %68 = load i32, i32* %8, align 4
  %69 = load i32, i32* %11, align 4
  %70 = icmp slt i32 %68, %69
  br i1 %70, label %71, label %106

71:                                               ; preds = %67
  %72 = load i32, i32* %8, align 4
  %73 = sext i32 %72 to i64
  %74 = getelementptr inbounds [256 x [256 x i8]], [256 x [256 x i8]]* %5, i64 0, i64 %73
  %75 = getelementptr inbounds [256 x i8], [256 x i8]* %74, i64 0, i64 0
  %76 = getelementptr inbounds [256 x i8], [256 x i8]* %3, i64 0, i64 0
  %77 = call i32 @strcmp(i8* %75, i8* %76) #4
  store i32 %77, i32* %10, align 4
  %78 = load i32, i32* %10, align 4
  %79 = icmp eq i32 %78, 0
  br i1 %79, label %80, label %95

80:                                               ; preds = %71
  %81 = load i32, i32* %8, align 4
  %82 = sext i32 %81 to i64
  %83 = getelementptr inbounds [256 x [256 x i8]], [256 x [256 x i8]]* %5, i64 0, i64 %82
  %84 = getelementptr inbounds [256 x i8], [256 x i8]* %83, i64 0, i64 0
  %85 = getelementptr inbounds [256 x i8], [256 x i8]* %4, i64 0, i64 0
  %86 = call i8* @strcpy(i8* %84, i8* %85) #5
  %87 = load i32, i32* %8, align 4
  %88 = sext i32 %87 to i64
  %89 = getelementptr inbounds [256 x [256 x i8]], [256 x [256 x i8]]* %5, i64 0, i64 %88
  %90 = getelementptr inbounds [256 x i8], [256 x i8]* %89, i64 0, i64 0
  %91 = call i32 (i8*, ...) @printf(i8* getelementptr inbounds ([3 x i8], [3 x i8]* @.str, i64 0, i64 0), i8* %90)
  %92 = load i32, i32* %6, align 4
  %93 = load i32, i32* %8, align 4
  %94 = add nsw i32 %93, %92
  store i32 %94, i32* %8, align 4
  br label %106

95:                                               ; preds = %71
  %96 = load i32, i32* %8, align 4
  %97 = sext i32 %96 to i64
  %98 = getelementptr inbounds [256 x i8], [256 x i8]* %2, i64 0, i64 %97
  %99 = load i8, i8* %98, align 1
  %100 = sext i8 %99 to i32
  %101 = call i32 (i8*, ...) @printf(i8* getelementptr inbounds ([3 x i8], [3 x i8]* @.str.1, i64 0, i64 0), i32 %100)
  br label %102

102:                                              ; preds = %95
  br label %103

103:                                              ; preds = %102
  %104 = load i32, i32* %8, align 4
  %105 = add nsw i32 %104, 1
  store i32 %105, i32* %8, align 4
  br label %67

106:                                              ; preds = %80, %67
  %107 = load i32, i32* %8, align 4
  store i32 %107, i32* %8, align 4
  br label %108

108:                                              ; preds = %119, %106
  %109 = load i32, i32* %8, align 4
  %110 = load i32, i32* %7, align 4
  %111 = icmp slt i32 %109, %110
  br i1 %111, label %112, label %122

112:                                              ; preds = %108
  %113 = load i32, i32* %8, align 4
  %114 = sext i32 %113 to i64
  %115 = getelementptr inbounds [256 x i8], [256 x i8]* %2, i64 0, i64 %114
  %116 = load i8, i8* %115, align 1
  %117 = sext i8 %116 to i32
  %118 = call i32 (i8*, ...) @printf(i8* getelementptr inbounds ([3 x i8], [3 x i8]* @.str.1, i64 0, i64 0), i32 %117)
  br label %119

119:                                              ; preds = %112
  %120 = load i32, i32* %8, align 4
  %121 = add nsw i32 %120, 1
  store i32 %121, i32* %8, align 4
  br label %108

122:                                              ; preds = %108
  ret i32 0
}

declare dso_local i32 @gets(...) #1

; Function Attrs: nounwind readonly
declare dso_local i64 @strlen(i8*) #2

; Function Attrs: nounwind readonly
declare dso_local i32 @strcmp(i8*, i8*) #2

; Function Attrs: nounwind
declare dso_local i8* @strcpy(i8*, i8*) #3

declare dso_local i32 @printf(i8*, ...) #1


!llvm.module.flags = !{!0}
!llvm.ident = !{!1}

!0 = !{i32 1, !"wchar_size", i32 4}
!1 = !{!"clang version 10.0.0-4ubuntu1 "}
